target datalayout = "e-m:e-p270:32:32-p271:32:32-p272:64:64-i64:64-i128:128-f80:128-n8:16:32:64-S128"
target triple = "x86_64-pc-linux-gnu"

@progname = internal global ptr null, align 8
@stderr = external global ptr, align 8
@.str.45 = private unnamed_addr constant [19 x i8] c"1.7.1-102-gb86ff49\00", align 1
@stdout = external global ptr, align 8
@.str.78 = private unnamed_addr constant [49 x i8] c"For listing the command options, use %s --help.\0A\00", align 1

; Function Attrs: nounwind uwtable
define internal void @usage(i32 noundef %0, i32 noundef %1) #0 {
  %3 = alloca i32, align 4
  %4 = alloca i32, align 4
  %5 = alloca ptr, align 8
  %6 = alloca i32, align 4
  store i32 %0, ptr %3, align 4, !tbaa !4
  store i32 %1, ptr %4, align 4, !tbaa !4
  call void @llvm.lifetime.start.p0(i64 8, ptr %5) #10
  %7 = load ptr, ptr @stderr, align 8, !tbaa !21
  store ptr %7, ptr %5, align 8, !tbaa !21
  %8 = load i32, ptr %3, align 4, !tbaa !4
  %9 = icmp eq i32 %8, 0
  br i1 %9, label %10, label %12

10:                                               ; preds = %2
  %11 = load ptr, ptr @stdout, align 8, !tbaa !21
  store ptr %11, ptr %5, align 8, !tbaa !21
  br label %12

12:                                               ; preds = %10, %2
  call void @llvm.lifetime.start.p0(i64 4, ptr %6) #10
  %13 = load ptr, ptr %5, align 8, !tbaa !21
  %14 = load ptr, ptr @progname, align 8, !tbaa !15
  %15 = load ptr, ptr @progname, align 8, !tbaa !15
  %16 = load ptr, ptr @progname, align 8, !tbaa !15
  %17 = call i32 (ptr, ptr, ...) @fprintf(ptr noundef %13, ptr noundef @.str.77, ptr noundef @.str.45, ptr noundef %14, ptr noundef %15, ptr noundef %16) #10
  store i32 %17, ptr %6, align 4, !tbaa !4
  %18 = load i32, ptr %4, align 4, !tbaa !4
  %19 = icmp ne i32 %18, 0
  br i1 %19, label %20, label %24

20:                                               ; preds = %12
  %21 = load ptr, ptr %5, align 8, !tbaa !21
  %22 = load ptr, ptr @progname, align 8, !tbaa !15
  %23 = call i32 (ptr, ptr, ...) @fprintf(ptr noundef %21, ptr noundef @.str.78, ptr noundef %22) #10
  br label %27

24:                                               ; preds = %12
  %25 = load ptr, ptr %5, align 8, !tbaa !21
  %26 = call i32 (ptr, ptr, ...) @fprintf(ptr noundef %25, ptr noundef @.str.79) #10
  br label %27

27:                                               ; preds = %24, %20
  %28 = load i32, ptr %6, align 4, !tbaa !4
  %29 = icmp slt i32 %28, 0
  br i1 %29, label %30, label %34

30:                                               ; preds = %27
  %31 = load i32, ptr %3, align 4, !tbaa !4
  %32 = icmp eq i32 %31, 0
  br i1 %32, label %33, label %34

33:                                               ; preds = %30
  br label %36

34:                                               ; preds = %30, %27
  %35 = load i32, ptr %3, align 4, !tbaa !4
  br label %36

36:                                               ; preds = %34, %33
  %37 = phi i32 [ 2, %33 ], [ %35, %34 ]
  call void @exit(i32 noundef %37) #12
  unreachable
}