; Function Attrs: nofree noreturn nounwind uwtable
define internal fastcc void @usage(i32 noundef range(i32 0, 3) %0, i32 noundef range(i32 0, 2) %1) unnamed_addr #6 {
  %3 = icmp eq i32 %0, 0
  %stdout.val = load ptr, ptr @stdout, align 8
  %stderr.val = load ptr, ptr @stderr, align 8
  %.0 = select i1 %3, ptr %stdout.val, ptr %stderr.val
  %4 = load ptr, ptr @progname, align 8, !tbaa !9
  %5 = tail call i32 (ptr, ptr, ...) @fprintf(ptr noundef %.0, ptr noundef nonnull @.str.77, ptr noundef nonnull @.str.45, ptr noundef %4, ptr noundef %4, ptr noundef %4) #19
  %.not = icmp eq i32 %1, 0
  br i1 %.not, label %9, label %6

6:                                                ; preds = %2
  %7 = load ptr, ptr @progname, align 8, !tbaa !9
  %8 = tail call i32 (ptr, ptr, ...) @fprintf(ptr noundef %.0, ptr noundef nonnull @.str.78, ptr noundef %7) #19
  br label %11

9:                                                ; preds = %2
  %10 = tail call i64 @fwrite(ptr nonnull @.str.79, i64 2372, i64 1, ptr %.0)
  br label %11

11:                                               ; preds = %9, %6
  %12 = icmp slt i32 %5, 0
  %or.cond = and i1 %3, %12
  %13 = select i1 %or.cond, i32 2, i32 %0
  tail call void @exit(i32 noundef %13) #25
  unreachable
}